target datalayout = "e-m:e-p270:32:32-p271:32:32-p272:64:64-i64:64-i128:128-f80:128-n8:16:32:64-S128"
target triple = "x86_64-pc-linux-gnu"

%struct.ssl_st = type { i32, i16, i16, ptr, ptr, ptr, ptr, ptr, i32, i32, ptr, ptr, i32, i32, ptr, ptr, ptr, ptr, ptr, ptr, ptr, ptr, i32, i32, [32 x i8], ptr, ptr, ptr, ptr, ptr, ptr, ptr, i64, %struct.crypto_ex_data_st, ptr, i32, i32, i32, i32, i16, ptr, i32, i64, ptr, ptr, ptr, ptr, ptr, ptr, i32, i32, ptr, ptr, i8, i8, i32 }
%struct.crypto_ex_data_st = type { ptr }
%struct.ssl_ctx_st = type { ptr, %union.crypto_mutex_st, i16, i16, ptr, ptr, ptr, ptr, ptr, ptr, i64, ptr, ptr, i32, i32, i64, ptr, ptr, ptr, i32, ptr, ptr, ptr, ptr, ptr, ptr, %struct.crypto_ex_data_st, ptr, ptr, ptr, ptr, i32, i32, i32, ptr, ptr, ptr, i32, i32, [32 x i8], ptr, ptr, ptr, ptr, i16, ptr, ptr, [16 x i8], [16 x i8], [16 x i8], ptr, ptr, ptr, ptr, i8, ptr, ptr, ptr, ptr, ptr, ptr, ptr, i32, ptr, i64, ptr, ptr, ptr, i64, ptr, i64, ptr, ptr, i8, ptr, i32 }
%union.crypto_mutex_st = type { double, [48 x i8] }
%struct.ssl_protocol_method_st = type { i8, ptr, ptr, ptr, ptr, ptr, ptr, ptr, ptr, ptr, ptr, ptr, i32, ptr, ptr }
%struct.cbb_st = type { ptr, ptr, i64, i8, i8, i8 }
%struct.buf_mem_st = type { i64, ptr, i64 }
%struct.ecdsa_sig_st = type { ptr, ptr }

@.str = private unnamed_addr constant [117 x i8] c"generated/home/dtcxzyw/WorkSpace/Projects/compilers/llvm-opt-benchmark/bench/libquic/libquic/boringssl/ssl/s3_clnt.c\00", align 1

; Function Attrs: nounwind uwtable
define hidden i32 @ssl3_send_channel_id(ptr noundef %0) #0 {
  %2 = alloca i32, align 4
  %3 = alloca ptr, align 8
  %4 = alloca ptr, align 8
  %5 = alloca i32, align 4
  %6 = alloca ptr, align 8
  %7 = alloca i32, align 4
  %8 = alloca ptr, align 8
  %9 = alloca ptr, align 8
  %10 = alloca ptr, align 8
  %11 = alloca [64 x i8], align 16
  %12 = alloca i64, align 8
  %13 = alloca %struct.cbb_st, align 8
  %14 = alloca %struct.cbb_st, align 8
  %15 = alloca i64, align 8
  store ptr %0, ptr %3, align 8, !tbaa !6
  %16 = load ptr, ptr %3, align 8, !tbaa !6
  %17 = getelementptr inbounds nuw %struct.ssl_st, ptr %16, i32 0, i32 9
  %18 = load i32, ptr %17, align 4, !tbaa !47
  %19 = icmp eq i32 %18, 4641
  br i1 %19, label %20, label %28

20:                                               ; preds = %1
  %21 = load ptr, ptr %3, align 8, !tbaa !6
  %22 = getelementptr inbounds nuw %struct.ssl_st, ptr %21, i32 0, i32 3
  %23 = load ptr, ptr %22, align 8, !tbaa !74
  %24 = getelementptr inbounds nuw %struct.ssl_protocol_method_st, ptr %23, i32 0, i32 14
  %25 = load ptr, ptr %24, align 8, !tbaa !80
  %26 = load ptr, ptr %3, align 8, !tbaa !6
  %27 = call i32 %25(ptr noundef %26)
  store i32 %27, ptr %2, align 4
  br label %192

28:                                               ; preds = %1
  %29 = load ptr, ptr %3, align 8, !tbaa !6
  %30 = getelementptr inbounds nuw %struct.ssl_st, ptr %29, i32 0, i32 47
  %31 = load ptr, ptr %30, align 8, !tbaa !178
  %32 = icmp eq ptr %31, null
  br i1 %32, label %33, label %61

33:                                               ; preds = %28
  %34 = load ptr, ptr %3, align 8, !tbaa !6
  %35 = getelementptr inbounds nuw %struct.ssl_st, ptr %34, i32 0, i32 31
  %36 = load ptr, ptr %35, align 8, !tbaa !40
  %37 = getelementptr inbounds nuw %struct.ssl_ctx_st, ptr %36, i32 0, i32 25
  %38 = load ptr, ptr %37, align 8, !tbaa !179
  %39 = icmp ne ptr %38, null
  br i1 %39, label %40, label %61

40:                                               ; preds = %33
  call void @llvm.lifetime.start.p0(i64 8, ptr %4) #8
  store ptr null, ptr %4, align 8, !tbaa !131
  %41 = load ptr, ptr %3, align 8, !tbaa !6
  %42 = getelementptr inbounds nuw %struct.ssl_st, ptr %41, i32 0, i32 31
  %43 = load ptr, ptr %42, align 8, !tbaa !40
  %44 = getelementptr inbounds nuw %struct.ssl_ctx_st, ptr %43, i32 0, i32 25
  %45 = load ptr, ptr %44, align 8, !tbaa !179
  %46 = load ptr, ptr %3, align 8, !tbaa !6
  call void %45(ptr noundef %46, ptr noundef %4)
  %47 = load ptr, ptr %4, align 8, !tbaa !131
  %48 = icmp ne ptr %47, null
  br i1 %48, label %49, label %56

49:                                               ; preds = %40
  %50 = load ptr, ptr %3, align 8, !tbaa !6
  %51 = load ptr, ptr %4, align 8, !tbaa !131
  %52 = call i32 @SSL_set1_tls_channel_id(ptr noundef %50, ptr noundef %51)
  %53 = icmp ne i32 %52, 0
  br i1 %53, label %56, label %54

54:                                               ; preds = %49
  %55 = load ptr, ptr %4, align 8, !tbaa !131
  call void @EVP_PKEY_free(ptr noundef %55)
  store i32 -1, ptr %2, align 4
  store i32 1, ptr %5, align 4
  br label %58

56:                                               ; preds = %49, %40
  %57 = load ptr, ptr %4, align 8, !tbaa !131
  call void @EVP_PKEY_free(ptr noundef %57)
  store i32 0, ptr %5, align 4
  br label %58

58:                                               ; preds = %56, %54
  call void @llvm.lifetime.end.p0(i64 8, ptr %4) #8
  %59 = load i32, ptr %5, align 4
  switch i32 %59, label %194 [
    i32 0, label %60
    i32 1, label %192
  ]

60:                                               ; preds = %58
  br label %61

61:                                               ; preds = %60, %33, %28
  %62 = load ptr, ptr %3, align 8, !tbaa !6
  %63 = getelementptr inbounds nuw %struct.ssl_st, ptr %62, i32 0, i32 47
  %64 = load ptr, ptr %63, align 8, !tbaa !178
  %65 = icmp eq ptr %64, null
  br i1 %65, label %66, label %69

66:                                               ; preds = %61
  %67 = load ptr, ptr %3, align 8, !tbaa !6
  %68 = getelementptr inbounds nuw %struct.ssl_st, ptr %67, i32 0, i32 22
  store i32 5, ptr %68, align 8, !tbaa !77
  store i32 -1, ptr %2, align 4
  br label %192

69:                                               ; preds = %61
  call void @llvm.lifetime.start.p0(i64 8, ptr %6) #8
  %70 = load ptr, ptr %3, align 8, !tbaa !6
  %71 = getelementptr inbounds nuw %struct.ssl_st, ptr %70, i32 0, i32 47
  %72 = load ptr, ptr %71, align 8, !tbaa !178
  %73 = call ptr @EVP_PKEY_get0_EC_KEY(ptr noundef %72)
  store ptr %73, ptr %6, align 8, !tbaa !142
  %74 = load ptr, ptr %6, align 8, !tbaa !142
  %75 = icmp eq ptr %74, null
  br i1 %75, label %76, label %77

76:                                               ; preds = %69
  call void @ERR_put_error(i32 noundef 16, i32 noundef 0, i32 noundef 68, ptr noundef @.str, i32 noundef 1985)
  store i32 -1, ptr %2, align 4
  store i32 1, ptr %5, align 4
  br label %191

77:                                               ; preds = %69
  call void @llvm.lifetime.start.p0(i64 4, ptr %7) #8
  store i32 -1, ptr %7, align 4, !tbaa !14
  call void @llvm.lifetime.start.p0(i64 8, ptr %8) #8
  %78 = call ptr @BN_new()
  store ptr %78, ptr %8, align 8, !tbaa !180
  call void @llvm.lifetime.start.p0(i64 8, ptr %9) #8
  %79 = call ptr @BN_new()
  store ptr %79, ptr %9, align 8, !tbaa !180
  call void @llvm.lifetime.start.p0(i64 8, ptr %10) #8
  store ptr null, ptr %10, align 8, !tbaa !181
  %80 = load ptr, ptr %8, align 8, !tbaa !180
  %81 = icmp eq ptr %80, null
  br i1 %81, label %94, label %82

82:                                               ; preds = %77
  %83 = load ptr, ptr %9, align 8, !tbaa !180
  %84 = icmp eq ptr %83, null
  br i1 %84, label %94, label %85

85:                                               ; preds = %82
  %86 = load ptr, ptr %6, align 8, !tbaa !142
  %87 = call ptr @EC_KEY_get0_group(ptr noundef %86)
  %88 = load ptr, ptr %6, align 8, !tbaa !142
  %89 = call ptr @EC_KEY_get0_public_key(ptr noundef %88)
  %90 = load ptr, ptr %8, align 8, !tbaa !180
  %91 = load ptr, ptr %9, align 8, !tbaa !180
  %92 = call i32 @EC_POINT_get_affine_coordinates_GFp(ptr noundef %87, ptr noundef %89, ptr noundef %90, ptr noundef %91, ptr noundef null)
  %93 = icmp ne i32 %92, 0
  br i1 %93, label %95, label %94

94:                                               ; preds = %85, %82, %77
  br label %186

95:                                               ; preds = %85
  %96 = load ptr, ptr %3, align 8, !tbaa !6
  %97 = getelementptr inbounds [64 x i8], ptr %11, i64 0, i64 0
  %98 = call i32 @tls1_channel_id_hash(ptr noundef %96, ptr noundef %97, ptr noundef %12)
  %99 = icmp ne i32 %98, 0
  br i1 %99, label %101, label %100

100:                                              ; preds = %95
  br label %186

101:                                              ; preds = %95
  %102 = getelementptr inbounds [64 x i8], ptr %11, i64 0, i64 0
  %103 = load i64, ptr %12, align 8, !tbaa !106
  %104 = load ptr, ptr %6, align 8, !tbaa !142
  %105 = call ptr @ECDSA_do_sign(ptr noundef %102, i64 noundef %103, ptr noundef %104)
  store ptr %105, ptr %10, align 8, !tbaa !181
  %106 = load ptr, ptr %10, align 8, !tbaa !181
  %107 = icmp eq ptr %106, null
  br i1 %107, label %108, label %109

108:                                              ; preds = %101
  br label %186

109:                                              ; preds = %101
  call void @CBB_zero(ptr noundef %13)
  %110 = load ptr, ptr %3, align 8, !tbaa !6
  %111 = getelementptr inbounds nuw %struct.ssl_st, ptr %110, i32 0, i32 10
  %112 = load ptr, ptr %111, align 8, !tbaa !48
  %113 = getelementptr inbounds nuw %struct.buf_mem_st, ptr %112, i32 0, i32 1
  %114 = load ptr, ptr %113, align 8, !tbaa !100
  %115 = load ptr, ptr %3, align 8, !tbaa !6
  %116 = getelementptr inbounds nuw %struct.ssl_st, ptr %115, i32 0, i32 3
  %117 = load ptr, ptr %116, align 8, !tbaa !74
  %118 = getelementptr inbounds nuw %struct.ssl_protocol_method_st, ptr %117, i32 0, i32 12
  %119 = load i32, ptr %118, align 8, !tbaa !102
  %120 = zext i32 %119 to i64
  %121 = getelementptr inbounds nuw i8, ptr %114, i64 %120
  %122 = load ptr, ptr %3, align 8, !tbaa !6
  %123 = getelementptr inbounds nuw %struct.ssl_st, ptr %122, i32 0, i32 10
  %124 = load ptr, ptr %123, align 8, !tbaa !48
  %125 = getelementptr inbounds nuw %struct.buf_mem_st, ptr %124, i32 0, i32 2
  %126 = load i64, ptr %125, align 8, !tbaa !103
  %127 = load ptr, ptr %3, align 8, !tbaa !6
  %128 = getelementptr inbounds nuw %struct.ssl_st, ptr %127, i32 0, i32 3
  %129 = load ptr, ptr %128, align 8, !tbaa !74
  %130 = getelementptr inbounds nuw %struct.ssl_protocol_method_st, ptr %129, i32 0, i32 12
  %131 = load i32, ptr %130, align 8, !tbaa !102
  %132 = zext i32 %131 to i64
  %133 = sub i64 %126, %132
  %134 = call i32 @CBB_init_fixed(ptr noundef %13, ptr noundef %121, i64 noundef %133)
  %135 = icmp ne i32 %134, 0
  br i1 %135, label %136, label %175

136:                                              ; preds = %109
  %137 = call i32 @CBB_add_u16(ptr noundef %13, i16 noundef zeroext 30032)
  %138 = icmp ne i32 %137, 0
  br i1 %138, label %139, label %175

139:                                              ; preds = %136
  %140 = call i32 @CBB_add_u16_length_prefixed(ptr noundef %13, ptr noundef %14)
  %141 = icmp ne i32 %140, 0
  br i1 %141, label %142, label %175

142:                                              ; preds = %139
  %143 = load ptr, ptr %8, align 8, !tbaa !180
  %144 = call i32 @BN_bn2cbb_padded(ptr noundef %14, i64 noundef 32, ptr noundef %143)
  %145 = icmp ne i32 %144, 0
  br i1 %145, label %146, label %175

146:                                              ; preds = %142
  %147 = load ptr, ptr %9, align 8, !tbaa !180
  %148 = call i32 @BN_bn2cbb_padded(ptr noundef %14, i64 noundef 32, ptr noundef %147)
  %149 = icmp ne i32 %148, 0
  br i1 %149, label %150, label %175

150:                                              ; preds = %146
  %151 = load ptr, ptr %10, align 8, !tbaa !181
  %152 = getelementptr inbounds nuw %struct.ecdsa_sig_st, ptr %151, i32 0, i32 0
  %153 = load ptr, ptr %152, align 8, !tbaa !183
  %154 = call i32 @BN_bn2cbb_padded(ptr noundef %14, i64 noundef 32, ptr noundef %153)
  %155 = icmp ne i32 %154, 0
  br i1 %155, label %156, label %175

156:                                              ; preds = %150
  %157 = load ptr, ptr %10, align 8, !tbaa !181
  %158 = getelementptr inbounds nuw %struct.ecdsa_sig_st, ptr %157, i32 0, i32 1
  %159 = load ptr, ptr %158, align 8, !tbaa !185
  %160 = call i32 @BN_bn2cbb_padded(ptr noundef %14, i64 noundef 32, ptr noundef %159)
  %161 = icmp ne i32 %160, 0
  br i1 %161, label %162, label %175

162:                                              ; preds = %156
  %163 = call i32 @CBB_finish(ptr noundef %13, ptr noundef null, ptr noundef %15)
  %164 = icmp ne i32 %163, 0
  br i1 %164, label %165, label %175

165:                                              ; preds = %162
  %166 = load ptr, ptr %3, align 8, !tbaa !6
  %167 = getelementptr inbounds nuw %struct.ssl_st, ptr %166, i32 0, i32 3
  %168 = load ptr, ptr %167, align 8, !tbaa !74
  %169 = getelementptr inbounds nuw %struct.ssl_protocol_method_st, ptr %168, i32 0, i32 13
  %170 = load ptr, ptr %169, align 8, !tbaa !105
  %171 = load ptr, ptr %3, align 8, !tbaa !6
  %172 = load i64, ptr %15, align 8, !tbaa !106
  %173 = call i32 %170(ptr noundef %171, i32 noundef 203, i64 noundef %172)
  %174 = icmp ne i32 %173, 0
  br i1 %174, label %176, label %175

175:                                              ; preds = %165, %162, %156, %150, %146, %142, %139, %136, %109
  call void @ERR_put_error(i32 noundef 16, i32 noundef 0, i32 noundef 68, ptr noundef @.str, i32 noundef 2024)
  call void @CBB_cleanup(ptr noundef %13)
  br label %186

176:                                              ; preds = %165
  %177 = load ptr, ptr %3, align 8, !tbaa !6
  %178 = getelementptr inbounds nuw %struct.ssl_st, ptr %177, i32 0, i32 9
  store i32 4641, ptr %178, align 4, !tbaa !47
  %179 = load ptr, ptr %3, align 8, !tbaa !6
  %180 = getelementptr inbounds nuw %struct.ssl_st, ptr %179, i32 0, i32 3
  %181 = load ptr, ptr %180, align 8, !tbaa !74
  %182 = getelementptr inbounds nuw %struct.ssl_protocol_method_st, ptr %181, i32 0, i32 14
  %183 = load ptr, ptr %182, align 8, !tbaa !80
  %184 = load ptr, ptr %3, align 8, !tbaa !6
  %185 = call i32 %183(ptr noundef %184)
  store i32 %185, ptr %7, align 4, !tbaa !14
  br label %186

186:                                              ; preds = %176, %175, %108, %100, %94
  %187 = load ptr, ptr %8, align 8, !tbaa !180
  call void @BN_free(ptr noundef %187)
  %188 = load ptr, ptr %9, align 8, !tbaa !180
  call void @BN_free(ptr noundef %188)
  %189 = load ptr, ptr %10, align 8, !tbaa !181
  call void @ECDSA_SIG_free(ptr noundef %189)
  %190 = load i32, ptr %7, align 4, !tbaa !14
  store i32 %190, ptr %2, align 4
  store i32 1, ptr %5, align 4
  call void @llvm.lifetime.end.p0(i64 8, ptr %10) #8
  call void @llvm.lifetime.end.p0(i64 8, ptr %9) #8
  call void @llvm.lifetime.end.p0(i64 8, ptr %8) #8
  call void @llvm.lifetime.end.p0(i64 4, ptr %7) #8
  br label %191

191:                                              ; preds = %186, %76
  call void @llvm.lifetime.end.p0(i64 8, ptr %6) #8
  br label %192

192:                                              ; preds = %191, %66, %58, %20
  %193 = load i32, ptr %2, align 4
  ret i32 %193

194:                                              ; preds = %58
  unreachable
}