; Function Attrs: nounwind uwtable
define hidden i32 @ssl3_send_channel_id(ptr noundef %0) local_unnamed_addr #0 {
  %2 = alloca ptr, align 8
  %3 = alloca [64 x i8], align 16
  %4 = alloca i64, align 8
  %5 = alloca %struct.cbb_st, align 8
  %6 = alloca %struct.cbb_st, align 8
  %7 = alloca i64, align 8
  %8 = getelementptr inbounds nuw i8, ptr %0, i64 52
  %9 = load i32, ptr %8, align 4, !tbaa !42
  %10 = icmp eq i32 %9, 4641
  br i1 %10, label %11, label %17

11:                                               ; preds = %1
  %12 = getelementptr inbounds nuw i8, ptr %0, i64 8
  %13 = load ptr, ptr %12, align 8, !tbaa !70
  %14 = getelementptr inbounds nuw i8, ptr %13, i64 112
  %15 = load ptr, ptr %14, align 8, !tbaa !83
  %16 = tail call i32 %15(ptr noundef nonnull %0) #11
  br label %99

17:                                               ; preds = %1
  %18 = getelementptr inbounds nuw i8, ptr %0, i64 344
  %19 = load ptr, ptr %18, align 8, !tbaa !157
  %20 = icmp eq ptr %19, null
  br i1 %20, label %21, label %.thread64

21:                                               ; preds = %17
  %22 = getelementptr inbounds nuw i8, ptr %0, i64 232
  %23 = load ptr, ptr %22, align 8, !tbaa !35
  %24 = getelementptr inbounds nuw i8, ptr %23, i64 232
  %25 = load ptr, ptr %24, align 8, !tbaa !158
  %.not = icmp eq ptr %25, null
  br i1 %.not, label %.thread66, label %26

26:                                               ; preds = %21
  call void @llvm.lifetime.start.p0(i64 8, ptr nonnull %2) #11
  store ptr null, ptr %2, align 8, !tbaa !149
  call void %25(ptr noundef nonnull %0, ptr noundef nonnull %2) #11
  %27 = load ptr, ptr %2, align 8, !tbaa !149
  %.not49 = icmp eq ptr %27, null
  br i1 %.not49, label %31, label %28

28:                                               ; preds = %26
  %29 = call i32 @SSL_set1_tls_channel_id(ptr noundef nonnull %0, ptr noundef nonnull %27) #11
  %.not50 = icmp eq i32 %29, 0
  %.pre = load ptr, ptr %2, align 8, !tbaa !149
  br i1 %.not50, label %30, label %31

30:                                               ; preds = %28
  call void @EVP_PKEY_free(ptr noundef %.pre) #11
  call void @llvm.lifetime.end.p0(i64 8, ptr nonnull %2) #11
  br label %99

31:                                               ; preds = %28, %26
  %32 = phi ptr [ null, %26 ], [ %.pre, %28 ]
  call void @EVP_PKEY_free(ptr noundef %32) #11
  call void @llvm.lifetime.end.p0(i64 8, ptr nonnull %2) #11
  %.pr.pre = load ptr, ptr %18, align 8, !tbaa !157
  %33 = icmp eq ptr %.pr.pre, null
  br i1 %33, label %.thread66, label %.thread64

.thread66:                                        ; preds = %21, %31
  %34 = getelementptr inbounds nuw i8, ptr %0, i64 144
  store i32 5, ptr %34, align 8, !tbaa !80
  br label %99

.thread64:                                        ; preds = %17, %31
  %35 = phi ptr [ %.pr.pre, %31 ], [ %19, %17 ]
  %36 = call ptr @EVP_PKEY_get0_EC_KEY(ptr noundef nonnull %35) #11
  %37 = icmp eq ptr %36, null
  br i1 %37, label %38, label %39

38:                                               ; preds = %.thread64
  call void @ERR_put_error(i32 noundef 16, i32 noundef 0, i32 noundef 68, ptr noundef nonnull @.str, i32 noundef 1985) #11
  br label %99

39:                                               ; preds = %.thread64
  %40 = call ptr @BN_new() #11
  %41 = call ptr @BN_new() #11
  %42 = icmp eq ptr %40, null
  %43 = icmp eq ptr %41, null
  %or.cond = select i1 %42, i1 true, i1 %43
  br i1 %or.cond, label %98, label %44

44:                                               ; preds = %39
  %45 = call ptr @EC_KEY_get0_group(ptr noundef nonnull %36) #11
  %46 = call ptr @EC_KEY_get0_public_key(ptr noundef nonnull %36) #11
  %47 = call i32 @EC_POINT_get_affine_coordinates_GFp(ptr noundef %45, ptr noundef %46, ptr noundef nonnull %40, ptr noundef nonnull %41, ptr noundef null) #11
  %.not51 = icmp eq i32 %47, 0
  br i1 %.not51, label %98, label %48

48:                                               ; preds = %44
  %49 = call i32 @tls1_channel_id_hash(ptr noundef nonnull %0, ptr noundef nonnull %3, ptr noundef nonnull %4) #11
  %.not52 = icmp eq i32 %49, 0
  br i1 %.not52, label %98, label %50

50:                                               ; preds = %48
  %51 = load i64, ptr %4, align 8, !tbaa !105
  %52 = call ptr @ECDSA_do_sign(ptr noundef nonnull %3, i64 noundef %51, ptr noundef nonnull %36) #11
  %53 = icmp eq ptr %52, null
  br i1 %53, label %98, label %54

54:                                               ; preds = %50
  call void @CBB_zero(ptr noundef nonnull %5) #11
  %55 = getelementptr inbounds nuw i8, ptr %0, i64 56
  %56 = load ptr, ptr %55, align 8, !tbaa !43
  %57 = getelementptr inbounds nuw i8, ptr %56, i64 8
  %58 = load ptr, ptr %57, align 8, !tbaa !99
  %59 = getelementptr inbounds nuw i8, ptr %0, i64 8
  %60 = load ptr, ptr %59, align 8, !tbaa !70
  %61 = getelementptr inbounds nuw i8, ptr %60, i64 96
  %62 = load i32, ptr %61, align 8, !tbaa !101
  %63 = zext i32 %62 to i64
  %64 = getelementptr inbounds nuw i8, ptr %58, i64 %63
  %65 = getelementptr inbounds nuw i8, ptr %56, i64 16
  %66 = load i64, ptr %65, align 8, !tbaa !102
  %67 = sub i64 %66, %63
  %68 = call i32 @CBB_init_fixed(ptr noundef nonnull %5, ptr noundef %64, i64 noundef %67) #11
  %.not53 = icmp eq i32 %68, 0
  br i1 %.not53, label %92, label %69

69:                                               ; preds = %54
  %70 = call i32 @CBB_add_u16(ptr noundef nonnull %5, i16 noundef zeroext 30032) #11
  %.not54 = icmp eq i32 %70, 0
  br i1 %.not54, label %92, label %71

71:                                               ; preds = %69
  %72 = call i32 @CBB_add_u16_length_prefixed(ptr noundef nonnull %5, ptr noundef nonnull %6) #11
  %.not55 = icmp eq i32 %72, 0
  br i1 %.not55, label %92, label %73

73:                                               ; preds = %71
  %74 = call i32 @BN_bn2cbb_padded(ptr noundef nonnull %6, i64 noundef 32, ptr noundef nonnull %40) #11
  %.not56 = icmp eq i32 %74, 0
  br i1 %.not56, label %92, label %75

75:                                               ; preds = %73
  %76 = call i32 @BN_bn2cbb_padded(ptr noundef nonnull %6, i64 noundef 32, ptr noundef nonnull %41) #11
  %.not57 = icmp eq i32 %76, 0
  br i1 %.not57, label %92, label %77

77:                                               ; preds = %75
  %78 = load ptr, ptr %52, align 8, !tbaa !159
  %79 = call i32 @BN_bn2cbb_padded(ptr noundef nonnull %6, i64 noundef 32, ptr noundef %78) #11
  %.not58 = icmp eq i32 %79, 0
  br i1 %.not58, label %92, label %80

80:                                               ; preds = %77
  %81 = getelementptr inbounds nuw i8, ptr %52, i64 8
  %82 = load ptr, ptr %81, align 8, !tbaa !161
  %83 = call i32 @BN_bn2cbb_padded(ptr noundef nonnull %6, i64 noundef 32, ptr noundef %82) #11
  %.not59 = icmp eq i32 %83, 0
  br i1 %.not59, label %92, label %84

84:                                               ; preds = %80
  %85 = call i32 @CBB_finish(ptr noundef nonnull %5, ptr noundef null, ptr noundef nonnull %7) #11
  %.not60 = icmp eq i32 %85, 0
  br i1 %.not60, label %92, label %86

86:                                               ; preds = %84
  %87 = load ptr, ptr %59, align 8, !tbaa !70
  %88 = getelementptr inbounds nuw i8, ptr %87, i64 104
  %89 = load ptr, ptr %88, align 8, !tbaa !104
  %90 = load i64, ptr %7, align 8, !tbaa !105
  %91 = call i32 %89(ptr noundef nonnull %0, i32 noundef 203, i64 noundef %90) #11
  %.not61 = icmp eq i32 %91, 0
  br i1 %.not61, label %92, label %93

92:                                               ; preds = %86, %84, %80, %77, %75, %73, %71, %69, %54
  call void @ERR_put_error(i32 noundef 16, i32 noundef 0, i32 noundef 68, ptr noundef nonnull @.str, i32 noundef 2024) #11
  call void @CBB_cleanup(ptr noundef nonnull %5) #11
  br label %98

93:                                               ; preds = %86
  store i32 4641, ptr %8, align 4, !tbaa !42
  %94 = load ptr, ptr %59, align 8, !tbaa !70
  %95 = getelementptr inbounds nuw i8, ptr %94, i64 112
  %96 = load ptr, ptr %95, align 8, !tbaa !83
  %97 = call i32 %96(ptr noundef nonnull %0) #11
  br label %98

98:                                               ; preds = %50, %48, %39, %44, %93, %92
  %.042 = phi i32 [ -1, %39 ], [ -1, %50 ], [ %97, %93 ], [ -1, %92 ], [ -1, %48 ], [ -1, %44 ]
  %.0 = phi ptr [ null, %39 ], [ null, %50 ], [ %52, %93 ], [ %52, %92 ], [ null, %48 ], [ null, %44 ]
  call void @BN_free(ptr noundef %40) #11
  call void @BN_free(ptr noundef %41) #11
  call void @ECDSA_SIG_free(ptr noundef %.0) #11
  br label %99

99:                                               ; preds = %30, %38, %98, %.thread66, %11
  %.040 = phi i32 [ %16, %11 ], [ -1, %30 ], [ -1, %.thread66 ], [ -1, %38 ], [ %.042, %98 ]
  ret i32 %.040
}